target datalayout = "e-m:e-p270:32:32-p271:32:32-p272:64:64-i64:64-i128:128-f80:128-n8:16:32:64-S128"
target triple = "x86_64-pc-linux-gnu"

%struct.pmix_object_t = type { %union.pthread_mutex_t, ptr, i32, %struct.pmix_tma }
%union.pthread_mutex_t = type { %struct.__pthread_mutex_s }
%struct.__pthread_mutex_s = type { i32, i32, i32, i32, i32, i16, i16, %struct.__pthread_internal_list }
%struct.__pthread_internal_list = type { ptr, ptr }
%struct.pmix_tma = type { ptr, ptr, ptr, ptr, ptr, ptr, ptr, ptr }
%struct.timeval = type { i64, i64 }
%struct.pmix_class_t = type { ptr, ptr, ptr, ptr, i32, i32, ptr, ptr, i64 }
%struct.event = type { %struct.event_callback, %union.anon.0, i32, ptr, %union.anon.2, i16, i16, %struct.timeval }
%struct.event_callback = type { %struct.anon, i16, i8, i8, %union.anon, ptr }
%struct.anon = type { ptr, ptr }
%union.anon = type { ptr }
%union.anon.0 = type { %struct.anon.1 }
%struct.anon.1 = type { ptr, ptr }
%union.anon.2 = type { %struct.anon.3 }
%struct.anon.3 = type { %struct.anon.4, %struct.timeval }
%struct.anon.4 = type { ptr, ptr }
%struct.pmix_lock_t = type { i32, %struct.pmix_mutex_t, %union.pthread_cond_t, i8 }
%struct.pmix_mutex_t = type { %struct.pmix_object_t, %union.pthread_mutex_t }
%union.pthread_cond_t = type { %struct.__pthread_cond_s }
%struct.__pthread_cond_s = type { %union.__atomic_wide_counter, %union.__atomic_wide_counter, [2 x i32], [2 x i32], i32, i32, [2 x i32] }
%union.__atomic_wide_counter = type { i64 }
%struct.pmix_name_t = type { ptr, i32 }
%struct.pmix_shift_caddy_t = type { %struct.pmix_object_t, %struct.event, %struct.pmix_lock_t, i32, ptr, i64, i32, %struct.pmix_name_t, ptr, ptr, ptr, i64, ptr, ptr, i64, ptr, i64, ptr, ptr, ptr, ptr, ptr, ptr, i8, %union.anon.10, ptr, i64 }
%union.anon.10 = type { ptr }

@.str.9 = private unnamed_addr constant [21 x i8] c"pthread_mutex_lock()\00", align 1

; Function Attrs: inlinehint nounwind uwtable
define internal void @pmix_tma_free(ptr noundef %0, ptr noundef %1) #3 {
  %3 = alloca ptr, align 8
  %4 = alloca ptr, align 8
  store ptr %0, ptr %3, align 8, !tbaa !68
  store ptr %1, ptr %4, align 8, !tbaa !79
  %5 = load ptr, ptr %3, align 8, !tbaa !68
  %6 = icmp ne ptr null, %5
  br i1 %6, label %7, label %13

7:                                                ; preds = %2
  %8 = load ptr, ptr %3, align 8, !tbaa !68
  %9 = getelementptr inbounds nuw %struct.pmix_tma, ptr %8, i32 0, i32 5
  %10 = load ptr, ptr %9, align 8, !tbaa !133
  %11 = load ptr, ptr %3, align 8, !tbaa !68
  %12 = load ptr, ptr %4, align 8, !tbaa !79
  call void %10(ptr noundef %11, ptr noundef %12)
  br label %15

13:                                               ; preds = %2
  %14 = load ptr, ptr %4, align 8, !tbaa !79
  call void @free(ptr noundef %14) #11
  br label %15

15:                                               ; preds = %13, %7
  ret void
}

; Function Attrs: inlinehint nounwind uwtable
define internal void @pmix_obj_run_destructors(ptr noundef %0) #3 {
  %2 = alloca ptr, align 8
  %3 = alloca ptr, align 8
  store ptr %0, ptr %2, align 8, !tbaa !66
  call void @llvm.lifetime.start.p0(i64 8, ptr %3) #11
  %4 = load ptr, ptr %2, align 8, !tbaa !66
  %5 = getelementptr inbounds nuw %struct.pmix_object_t, ptr %4, i32 0, i32 1
  %6 = load ptr, ptr %5, align 8, !tbaa !44
  %7 = getelementptr inbounds nuw %struct.pmix_class_t, ptr %6, i32 0, i32 7
  %8 = load ptr, ptr %7, align 8, !tbaa !125
  store ptr %8, ptr %3, align 8, !tbaa !79
  br label %9

9:                                                ; preds = %13, %1
  %10 = load ptr, ptr %3, align 8, !tbaa !79
  %11 = load ptr, ptr %10, align 8, !tbaa !79
  %12 = icmp ne ptr null, %11
  br i1 %12, label %13, label %19

13:                                               ; preds = %9
  %14 = load ptr, ptr %3, align 8, !tbaa !79
  %15 = load ptr, ptr %14, align 8, !tbaa !79
  %16 = load ptr, ptr %2, align 8, !tbaa !66
  call void %15(ptr noundef %16)
  %17 = load ptr, ptr %3, align 8, !tbaa !79
  %18 = getelementptr inbounds nuw ptr, ptr %17, i32 1
  store ptr %18, ptr %3, align 8, !tbaa !79
  br label %9, !llvm.loop !126

19:                                               ; preds = %9
  call void @llvm.lifetime.end.p0(i64 8, ptr %3) #11
  ret void
}

; Function Attrs: alwaysinline nounwind uwtable
define internal i32 @pmix_obj_update(ptr noundef %0, i32 noundef %1) #4 {
  %3 = alloca ptr, align 8
  %4 = alloca i32, align 4
  %5 = alloca i32, align 4
  store ptr %0, ptr %3, align 8, !tbaa !66
  store i32 %1, ptr %4, align 4, !tbaa !41
  call void @llvm.lifetime.start.p0(i64 4, ptr %5) #11
  %6 = load ptr, ptr %3, align 8, !tbaa !66
  %7 = getelementptr inbounds nuw %struct.pmix_object_t, ptr %6, i32 0, i32 0
  %8 = call i32 @pthread_mutex_lock(ptr noundef %7) #11
  store i32 %8, ptr %5, align 4, !tbaa !41
  %9 = load i32, ptr %5, align 4, !tbaa !41
  %10 = icmp eq i32 %9, 35
  br i1 %10, label %11, label %14

11:                                               ; preds = %2
  %12 = load i32, ptr %5, align 4, !tbaa !41
  %13 = call ptr @__errno_location() #13
  store i32 %12, ptr %13, align 4, !tbaa !41
  call void @perror(ptr noundef @.str.9)
  call void @abort() #14
  unreachable

14:                                               ; preds = %2
  %15 = load i32, ptr %4, align 4, !tbaa !41
  %16 = load ptr, ptr %3, align 8, !tbaa !66
  %17 = getelementptr inbounds nuw %struct.pmix_object_t, ptr %16, i32 0, i32 2
  %18 = load i32, ptr %17, align 8, !tbaa !45
  %19 = add nsw i32 %18, %15
  store i32 %19, ptr %17, align 8, !tbaa !45
  store i32 %19, ptr %5, align 4, !tbaa !41
  %20 = load ptr, ptr %3, align 8, !tbaa !66
  %21 = getelementptr inbounds nuw %struct.pmix_object_t, ptr %20, i32 0, i32 0
  %22 = call i32 @pthread_mutex_unlock(ptr noundef %21) #11
  %23 = load i32, ptr %5, align 4, !tbaa !41
  call void @llvm.lifetime.end.p0(i64 4, ptr %5) #11
  ret i32 %23
}

; Function Attrs: nounwind uwtable
define internal void @localcbfunc(i32 noundef %0, ptr noundef %1) #0 {
  %3 = alloca i32, align 4
  %4 = alloca ptr, align 8
  %5 = alloca ptr, align 8
  %6 = alloca ptr, align 8
  store i32 %0, ptr %3, align 4, !tbaa !41
  store ptr %1, ptr %4, align 8, !tbaa !79
  call void @llvm.lifetime.start.p0(i64 8, ptr %5) #11
  %7 = load ptr, ptr %4, align 8, !tbaa !79
  store ptr %7, ptr %5, align 8, !tbaa !79
  br label %8

8:                                                ; preds = %2
  %9 = load ptr, ptr %5, align 8, !tbaa !79
  %10 = getelementptr inbounds nuw %struct.pmix_shift_caddy_t, ptr %9, i32 0, i32 15
  %11 = load ptr, ptr %10, align 8, !tbaa !120
  %12 = load ptr, ptr %5, align 8, !tbaa !79
  %13 = getelementptr inbounds nuw %struct.pmix_shift_caddy_t, ptr %12, i32 0, i32 16
  %14 = load i64, ptr %13, align 8, !tbaa !121
  call void @PMIx_Info_free(ptr noundef %11, i64 noundef %14)
  %15 = load ptr, ptr %5, align 8, !tbaa !79
  %16 = getelementptr inbounds nuw %struct.pmix_shift_caddy_t, ptr %15, i32 0, i32 15
  store ptr null, ptr %16, align 8, !tbaa !120
  br label %17

17:                                               ; preds = %8
  br label %18

18:                                               ; preds = %17
  %19 = load ptr, ptr %5, align 8, !tbaa !79
  %20 = getelementptr inbounds nuw %struct.pmix_shift_caddy_t, ptr %19, i32 0, i32 24
  %21 = load ptr, ptr %20, align 8, !tbaa !82
  %22 = icmp ne ptr null, %21
  br i1 %22, label %23, label %31

23:                                               ; preds = %18
  %24 = load ptr, ptr %5, align 8, !tbaa !79
  %25 = getelementptr inbounds nuw %struct.pmix_shift_caddy_t, ptr %24, i32 0, i32 24
  %26 = load ptr, ptr %25, align 8, !tbaa !82
  %27 = load i32, ptr %3, align 4, !tbaa !41
  %28 = load ptr, ptr %5, align 8, !tbaa !79
  %29 = getelementptr inbounds nuw %struct.pmix_shift_caddy_t, ptr %28, i32 0, i32 25
  %30 = load ptr, ptr %29, align 8, !tbaa !93
  call void %26(i32 noundef %27, ptr noundef %30)
  br label %31

31:                                               ; preds = %23, %18
  br label %32

32:                                               ; preds = %31
  call void @llvm.lifetime.start.p0(i64 8, ptr %6) #11
  %33 = load ptr, ptr %5, align 8, !tbaa !79
  store ptr %33, ptr %6, align 8, !tbaa !66
  %34 = load ptr, ptr %6, align 8, !tbaa !66
  %35 = call i32 @pmix_obj_update(ptr noundef %34, i32 noundef -1)
  %36 = icmp eq i32 0, %35
  br i1 %36, label %37, label %51

37:                                               ; preds = %32
  %38 = load ptr, ptr %6, align 8, !tbaa !66
  call void @pmix_obj_run_destructors(ptr noundef %38)
  %39 = load ptr, ptr %6, align 8, !tbaa !66
  %40 = getelementptr inbounds nuw %struct.pmix_object_t, ptr %39, i32 0, i32 3
  %41 = getelementptr inbounds nuw %struct.pmix_tma, ptr %40, i32 0, i32 5
  %42 = load ptr, ptr %41, align 8, !tbaa !75
  %43 = icmp ne ptr null, %42
  br i1 %43, label %44, label %48

44:                                               ; preds = %37
  %45 = load ptr, ptr %6, align 8, !tbaa !66
  %46 = getelementptr inbounds nuw %struct.pmix_object_t, ptr %45, i32 0, i32 3
  %47 = load ptr, ptr %5, align 8, !tbaa !79
  call void @pmix_tma_free(ptr noundef %46, ptr noundef %47)
  br label %50

48:                                               ; preds = %37
  %49 = load ptr, ptr %5, align 8, !tbaa !79
  call void @free(ptr noundef %49) #11
  br label %50

50:                                               ; preds = %48, %44
  store ptr null, ptr %5, align 8, !tbaa !79
  br label %51

51:                                               ; preds = %50, %32
  call void @llvm.lifetime.end.p0(i64 8, ptr %6) #11
  br label %52

52:                                               ; preds = %51
  br label %53

53:                                               ; preds = %52
  call void @llvm.lifetime.end.p0(i64 8, ptr %5) #11
  ret void
}