; Function Attrs: nounwind uwtable
define internal void @localcbfunc(i32 noundef %0, ptr noundef %1) #0 {
  %3 = getelementptr inbounds nuw i8, ptr %1, i64 576
  %4 = load ptr, ptr %3, align 8, !tbaa !108
  %5 = getelementptr inbounds nuw i8, ptr %1, i64 584
  %6 = load i64, ptr %5, align 8, !tbaa !109
  tail call void @PMIx_Info_free(ptr noundef %4, i64 noundef %6) #12
  store ptr null, ptr %3, align 8, !tbaa !108
  %7 = getelementptr inbounds nuw i8, ptr %1, i64 648
  %8 = load ptr, ptr %7, align 8, !tbaa !70
  %.not = icmp eq ptr %8, null
  br i1 %.not, label %12, label %9

9:                                                ; preds = %2
  %10 = getelementptr inbounds nuw i8, ptr %1, i64 656
  %11 = load ptr, ptr %10, align 8, !tbaa !81
  tail call void %8(i32 noundef %0, ptr noundef %11) #12
  br label %12

12:                                               ; preds = %2, %9
  %13 = tail call i32 @pthread_mutex_lock(ptr noundef nonnull %1) #12
  %14 = icmp eq i32 %13, 35
  br i1 %14, label %15, label %pmix_obj_update.exit

15:                                               ; preds = %12
  %16 = tail call ptr @__errno_location() #15
  store i32 35, ptr %16, align 4, !tbaa !38
  tail call void @perror(ptr noundef nonnull @.str.9) #16
  tail call void @abort() #17
  unreachable

pmix_obj_update.exit:                             ; preds = %12
  %17 = getelementptr inbounds nuw i8, ptr %1, i64 48
  %18 = load i32, ptr %17, align 8, !tbaa !42
  %19 = add nsw i32 %18, -1
  store i32 %19, ptr %17, align 8, !tbaa !42
  %20 = tail call i32 @pthread_mutex_unlock(ptr noundef nonnull %1) #12
  %21 = icmp eq i32 %19, 0
  br i1 %21, label %22, label %36

22:                                               ; preds = %pmix_obj_update.exit
  %23 = getelementptr inbounds nuw i8, ptr %1, i64 40
  %24 = load ptr, ptr %23, align 8, !tbaa !41
  %25 = getelementptr inbounds nuw i8, ptr %24, i64 48
  %26 = load ptr, ptr %25, align 8, !tbaa !67
  %27 = load ptr, ptr %26, align 8, !tbaa !44
  %.not6.i = icmp eq ptr %27, null
  br i1 %.not6.i, label %pmix_obj_run_destructors.exit, label %.lr.ph.i

.lr.ph.i:                                         ; preds = %22, %.lr.ph.i
  %28 = phi ptr [ %30, %.lr.ph.i ], [ %27, %22 ]
  %.07.i = phi ptr [ %29, %.lr.ph.i ], [ %26, %22 ]
  tail call void %28(ptr noundef nonnull %1) #12
  %29 = getelementptr inbounds nuw i8, ptr %.07.i, i64 8
  %30 = load ptr, ptr %29, align 8, !tbaa !44
  %.not.i = icmp eq ptr %30, null
  br i1 %.not.i, label %pmix_obj_run_destructors.exit, label %.lr.ph.i, !llvm.loop !68

pmix_obj_run_destructors.exit:                    ; preds = %.lr.ph.i, %22
  %31 = getelementptr inbounds nuw i8, ptr %1, i64 96
  %32 = load ptr, ptr %31, align 8, !tbaa !98
  %.not14 = icmp eq ptr %32, null
  br i1 %.not14, label %35, label %33

33:                                               ; preds = %pmix_obj_run_destructors.exit
  %34 = getelementptr inbounds nuw i8, ptr %1, i64 56
  tail call void %32(ptr noundef nonnull %34, ptr noundef nonnull %1) #12
  br label %36

35:                                               ; preds = %pmix_obj_run_destructors.exit
  tail call void @free(ptr noundef nonnull %1) #12
  br label %36

36:                                               ; preds = %33, %35, %pmix_obj_update.exit
  ret void
}